; Function Attrs: mustprogress nounwind uwtable
define void @_ZN5Ipopt19Ma77SolverInterfaceD2Ev(ptr noundef nonnull align 8 dereferenceable(536) %0) unnamed_addr #3 align 2 personality ptr @__gxx_personality_v0 {
  %2 = alloca %struct.ma77_info_d, align 8
  store ptr getelementptr inbounds ({ [14 x ptr] }, ptr @_ZTVN5Ipopt19Ma77SolverInterfaceE, i64 0, i32 0, i64 2), ptr %0, align 8
  %3 = getelementptr inbounds i8, ptr %0, i64 56
  %4 = load ptr, ptr %3, align 8
  %5 = icmp eq ptr %4, null
  br i1 %5, label %7, label %6

6:                                                ; preds = %1
  tail call void @_ZdaPv(ptr noundef nonnull %4) #13
  br label %7

7:                                                ; preds = %6, %1
  %8 = getelementptr inbounds i8, ptr %0, i64 72
  %9 = load ptr, ptr %8, align 8
  %.not = icmp eq ptr %9, null
  br i1 %.not, label %14, label %10

10:                                               ; preds = %7
  %11 = getelementptr inbounds i8, ptr %0, i64 512
  %12 = load ptr, ptr %11, align 8
  %13 = getelementptr inbounds i8, ptr %0, i64 88
  invoke void %12(ptr noundef nonnull %8, ptr noundef nonnull %13, ptr noundef nonnull %2)
          to label %14 unwind label %29

14:                                               ; preds = %10, %7
  %15 = getelementptr inbounds i8, ptr %0, i64 384
  %16 = load ptr, ptr %15, align 8
  %.not.i.i = icmp eq ptr %16, null
  br i1 %.not.i.i, label %_ZN5Ipopt8SmartPtrINS_13LibraryLoaderEED2Ev.exit, label %17

17:                                               ; preds = %14
  %18 = getelementptr inbounds i8, ptr %16, i64 8
  %19 = load i32, ptr %18, align 8
  %20 = add nsw i32 %19, -1
  store i32 %20, ptr %18, align 8
  %21 = load ptr, ptr %15, align 8
  %22 = getelementptr inbounds i8, ptr %21, i64 8
  %23 = load i32, ptr %22, align 8
  %24 = icmp eq i32 %23, 0
  br i1 %24, label %25, label %_ZN5Ipopt8SmartPtrINS_13LibraryLoaderEED2Ev.exit

25:                                               ; preds = %17
  %26 = load ptr, ptr %21, align 8
  %27 = getelementptr inbounds i8, ptr %26, i64 8
  %28 = load ptr, ptr %27, align 8
  call void %28(ptr noundef nonnull align 8 dereferenceable(56) %21) #14
  br label %_ZN5Ipopt8SmartPtrINS_13LibraryLoaderEED2Ev.exit

_ZN5Ipopt8SmartPtrINS_13LibraryLoaderEED2Ev.exit: ; preds = %14, %17, %25
  call void @_ZN5Ipopt23AlgorithmStrategyObjectD2Ev(ptr noundef nonnull align 8 dereferenceable(49) %0) #14
  ret void

29:                                               ; preds = %10
  %30 = landingpad { ptr, i32 }
          catch ptr null
  %31 = extractvalue { ptr, i32 } %30, 0
  call void @__clang_call_terminate(ptr %31) #15
  unreachable
}